; Function Attrs: nounwind uwtable
define range(i32 -2, 1) i32 @KINSetPrintLevel(ptr noundef writeonly %0, i32 noundef %1) local_unnamed_addr #0 {
  %3 = icmp eq ptr %0, null
  br i1 %3, label %4, label %5

4:                                                ; preds = %2
  tail call void (ptr, i32, ptr, ptr, ptr, ...) @KINProcessError(ptr noundef null, i32 noundef -1, ptr noundef nonnull @.str, ptr noundef nonnull @.str.4, ptr noundef nonnull @.str.2) #6
  br label %9

5:                                                ; preds = %2
  %or.cond = icmp ugt i32 %1, 3
  br i1 %or.cond, label %6, label %7

6:                                                ; preds = %5
  tail call void (ptr, i32, ptr, ptr, ptr, ...) @KINProcessError(ptr noundef null, i32 noundef -2, ptr noundef nonnull @.str, ptr noundef nonnull @.str.4, ptr noundef nonnull @.str.5) #6
  br label %9

7:                                                ; preds = %5
  %8 = getelementptr inbounds nuw i8, ptr %0, i64 44
  store i32 %1, ptr %8, align 4
  br label %9

9:                                                ; preds = %7, %6, %4
  %.0 = phi i32 [ -1, %4 ], [ -2, %6 ], [ 0, %7 ]
  ret i32 %.0
}